; Function Attrs: mustprogress nofree norecurse nosync nounwind willreturn memory(read, argmem: readwrite, inaccessiblemem: none) uwtable
define hidden void @_Py_Specialize_ContainsOp(i64 %0, ptr noundef captures(none) %1) local_unnamed_addr #2 {
  %3 = inttoptr i64 %0 to ptr
  %4 = getelementptr i8, ptr %3, i64 8
  %.val9 = load ptr, ptr %4, align 8, !tbaa !9
  %.not = icmp eq ptr %.val9, @PyDict_Type
  br i1 %.not, label %5, label %7

5:                                                ; preds = %2
  store i8 -67, ptr %1, align 2, !tbaa !4
  %6 = getelementptr i8, ptr %1, i64 2
  store i16 832, ptr %6, align 2, !tbaa !24
  br label %24

7:                                                ; preds = %2
  %.not10 = icmp eq ptr %.val9, @PySet_Type
  %.not11 = icmp eq ptr %.val9, @PyFrozenSet_Type
  %or.cond = or i1 %.not10, %.not11
  br i1 %or.cond, label %8, label %10

8:                                                ; preds = %7
  store i8 -66, ptr %1, align 2, !tbaa !4
  %9 = getelementptr i8, ptr %1, i64 2
  store i16 832, ptr %9, align 2, !tbaa !24
  br label %24

10:                                               ; preds = %7
  %11 = load i8, ptr %1, align 2, !tbaa !4
  %12 = zext i8 %11 to i64
  %13 = getelementptr [256 x i8], ptr @_PyOpcode_Deopt, i64 0, i64 %12
  %14 = load i8, ptr %13, align 1, !tbaa !4
  store i8 %14, ptr %1, align 2, !tbaa !4
  %15 = getelementptr i8, ptr %1, i64 2
  %.val.i = load i16, ptr %15, align 2, !tbaa !24
  %16 = and i16 %.val.i, 15
  %17 = icmp samesign ult i16 %16, 12
  br i1 %17, label %18, label %unspecialize.exit

18:                                               ; preds = %10
  %narrow.i.i.i = add nuw nsw i16 %16, 1
  %19 = zext nneg i16 %narrow.i.i.i to i32
  %notmask.i.i.i = shl nsw i32 -1, %19
  %20 = trunc i32 %notmask.i.i.i to i16
  %21 = xor i16 %20, -1
  %22 = shl nuw i16 %21, 4
  %23 = or i16 %22, %narrow.i.i.i
  br label %unspecialize.exit

unspecialize.exit:                                ; preds = %10, %18
  %.sroa.03.0.i.i.i = phi i16 [ %23, %18 ], [ -4, %10 ]
  store i16 %.sroa.03.0.i.i.i, ptr %15, align 2, !tbaa !24
  br label %24

24:                                               ; preds = %unspecialize.exit, %8, %5
  ret void
}